MPASM 5.77                        CHASER.ASM   5-4-2018  1:06:22         PAGE  1


LOC  OBJECT CODE     LINE SOURCE TEXT
  VALUE

                      00001 ; File CHASER.ASM
                      00002 ; Blinks LEDs on outputs (Port B) in a rotating pattern.
                      00003 ; Reverses direction if port A, Bit 0, is high.
                      00004         
                      00005 ; PIC16F84A Configuration Bit Settings
                      00006 ; Assembly source line config statements
                      00007     #include "p16f84a.inc"
                      00001         LIST
                      00002 
                      00003 ;==========================================================================
                      00004 ; Build date : Nov 22 2017
                      00005 ;  MPASM PIC16F84A processor include
                      00006 ; 
                      00007 ;  (c) Copyright 1999-2017 Microchip Technology, All rights reserved
                      00008 ;==========================================================================
                      00009 
                      00209         LIST
                      00008 
                      00009 ; CONFIG
                      00010 ; __config 0xFFF1
2007   3FF1           00011     __CONFIG _FOSC_XT & _WDTE_OFF & _PWRTE_ON & _CP_OFF
                      00012 
                      00013 ; Give names to 2 memory locations (registers)
  0000001F            00014 J       equ     H'1F'   ; J = address hex 1F
  0000001E            00015 K       equ     H'1E'   ; K = address hex 1E
                      00016 
                      00017 ; Program
                      00018         org     0       ; start at address 0
                      00019         ; Set Port B to output and initialize it.
0000   3000           00020         movlw   B'00000000'     ; w := binary 00000000
Warning[224]: Use of this instruction is not recommended.
0001   0066           00021         tris    PORTB           ; copy w to port B control reg
0002   3001           00022         movlw   B'00000001'     ; w := binary 00000001
0003   0086           00023         movwf   PORTB           ; copy w to port B itself
0004   1003           00024         bcf     STATUS, C       ; clear the carry bit
                      00025 
                      00026 ; Main loop.  Check Port A, Bit 0, and rotate either left 
                      00027 ; or right through the carry register.
0005                  00028 mloop:
0005   1C05           00029         btfss   PORTA, 0        ; skip next instruction if bit = 1
0006   2???           00030         goto    m1
0007   0D86           00031         rlf     PORTB, f        ; rotate port B bits to left
0008   2???           00032         goto    m2
0009                  00033 m1:
0009   0C86           00034         rrf     PORTB, f        ; rotate port B bits to right
000A                  00035 m2:
                      00036 
                      00037 ; Waste some time by executing nested loops
000A   3032           00038         movlw   D'50'           ; w := 50 decimal
000B   009F           00039         movwf   J               ; J := w
000C   009E           00040 jloop:  movwf   K               ; K := w
000D   0B9E           00041 kloop:  decfsz  K, f            ; K := K - 1, skip next if zero
000E   2???           00042         goto    kloop
MPASM 5.77                        CHASER.ASM   5-4-2018  1:06:22         PAGE  2


LOC  OBJECT CODE     LINE SOURCE TEXT
  VALUE

000F   0B9F           00043         decfsz  J,f             ; J := J-1, skip next if zero
0010   2???           00044         goto    jloop
0011   2???           00045         goto    mloop           ; do it all again
3FF1                  00046         end                     ; program ends here
MPASM 5.77                        CHASER.ASM   5-4-2018  1:06:22         PAGE  3


SYMBOL TABLE
  LABEL                             VALUE 

C                                 00000000
DC                                00000001
EEADR                             00000009
EECON1                            00000088
EECON2                            00000089
EEDATA                            00000008
EEIE                              00000006
EEIF                              00000004
F                                 00000001
FSR                               00000004
GIE                               00000007
INDF                              00000000
INTCON                            0000000B
INTE                              00000004
INTEDG                            00000006
INTF                              00000001
IRP                               00000007
J                                 0000001F
K                                 0000001E
NOT_PD                            00000003
NOT_RBPU                          00000007
NOT_TO                            00000004
OPTION_REG                        00000081
PCL                               00000002
PCLATH                            0000000A
PORTA                             00000005
PORTB                             00000006
PS0                               00000000
PS1                               00000001
PS2                               00000002
PSA                               00000003
RA0                               00000000
RA1                               00000001
RA2                               00000002
RA3                               00000003
RA4                               00000004
RB0                               00000000
RB1                               00000001
RB2                               00000002
RB3                               00000003
RB4                               00000004
RB5                               00000005
RB6                               00000006
RB7                               00000007
RBIE                              00000003
RBIF                              00000000
RD                                00000000
RP0                               00000005
RP1                               00000006
STATUS                            00000003
T0CS                              00000005
T0IE                              00000005
T0IF                              00000002
MPASM 5.77                        CHASER.ASM   5-4-2018  1:06:22         PAGE  4


SYMBOL TABLE
  LABEL                             VALUE 

T0SE                              00000004
TMR0                              00000001
TMR0IE                            00000005
TMR0IF                            00000002
TRISA                             00000085
TRISA0                            00000000
TRISA1                            00000001
TRISA2                            00000002
TRISA3                            00000003
TRISA4                            00000004
TRISB                             00000086
TRISB0                            00000000
TRISB1                            00000001
TRISB2                            00000002
TRISB3                            00000003
TRISB4                            00000004
TRISB5                            00000005
TRISB6                            00000006
TRISB7                            00000007
W                                 00000000
WR                                00000001
WREN                              00000002
WRERR                             00000003
Z                                 00000002
_CONFIG                           00002007
_CP_OFF                           00003FFF
_CP_ON                            0000000F
_DEVID1                           00002006
_FOSC_EXTRC                       00003FFF
_FOSC_HS                          00003FFE
_FOSC_LP                          00003FFC
_FOSC_XT                          00003FFD
_HS_OSC                           00003FFE
_IDLOC0                           00002000
_IDLOC1                           00002001
_IDLOC2                           00002002
_IDLOC3                           00002003
_LP_OSC                           00003FFC
_PWRTE_OFF                        00003FFF
_PWRTE_ON                         00003FF7
_RC_OSC                           00003FFF
_WDTE_OFF                         00003FFB
_WDTE_ON                          00003FFF
_WDT_OFF                          00003FFB
_WDT_ON                           00003FFF
_XT_OSC                           00003FFD
__16F84A                          00000001
jloop                             0000000C
kloop                             0000000D
m1                                00000009
m2                                0000000A
mloop                             00000005

MPASM 5.77                        CHASER.ASM   5-4-2018  1:06:22         PAGE  5





Errors   :     0
Warnings :     1 reported,     0 suppressed
Messages :     0 reported,     0 suppressed

